; Function Attrs: nounwind uwtable
define ptr @l_Lean_Compiler_LCNF_cse___boxed(ptr noundef %0, ptr noundef %1, ptr noundef %2) local_unnamed_addr #1 {
  %4 = ptrtoint ptr %0 to i64
  %5 = and i64 %4, 1
  %.not = icmp eq i64 %5, 0
  br i1 %.not, label %6, label %lean_dec.exit7

6:                                                ; preds = %3
  %7 = load i32, ptr %0, align 4, !tbaa !4
  %8 = icmp sgt i32 %7, 1
  br i1 %8, label %9, label %11, !prof !11

9:                                                ; preds = %6
  %10 = add nsw i32 %7, -1
  store i32 %10, ptr %0, align 4, !tbaa !4
  br label %lean_dec.exit7

11:                                               ; preds = %6
  %.not.i = icmp eq i32 %7, 0
  br i1 %.not.i, label %lean_dec.exit7, label %12

12:                                               ; preds = %11
  tail call void @lean_dec_ref_cold(ptr noundef nonnull %0) #4
  br label %lean_dec.exit7

lean_dec.exit7:                                   ; preds = %12, %11, %9, %3
  %13 = ptrtoint ptr %1 to i64
  %14 = and i64 %13, 1
  %.not10 = icmp eq i64 %14, 0
  br i1 %.not10, label %15, label %lean_dec.exit

15:                                               ; preds = %lean_dec.exit7
  %16 = load i32, ptr %1, align 4, !tbaa !4
  %17 = icmp sgt i32 %16, 1
  br i1 %17, label %18, label %20, !prof !11

18:                                               ; preds = %15
  %19 = add nsw i32 %16, -1
  store i32 %19, ptr %1, align 4, !tbaa !4
  br label %lean_dec.exit

20:                                               ; preds = %15
  %.not.i8 = icmp eq i32 %16, 0
  br i1 %.not.i8, label %lean_dec.exit, label %21

21:                                               ; preds = %20
  tail call void @lean_dec_ref_cold(ptr noundef nonnull %1) #4
  br label %lean_dec.exit

lean_dec.exit:                                    ; preds = %21, %20, %18, %lean_dec.exit7
  tail call void @lean_inc_heartbeat() #4
  %22 = tail call noalias ptr @mi_malloc_small(i64 noundef 32) #4
  %23 = icmp eq ptr %22, null
  br i1 %23, label %24, label %l_Lean_Compiler_LCNF_cse.exit

24:                                               ; preds = %lean_dec.exit
  tail call void @lean_internal_panic_out_of_memory() #5
  unreachable

l_Lean_Compiler_LCNF_cse.exit:                    ; preds = %lean_dec.exit
  %25 = lshr i64 %4, 1
  %26 = trunc i64 %25 to i8
  %27 = and i64 %13, 510
  %28 = or disjoint i64 %27, 1
  %29 = inttoptr i64 %28 to ptr
  %30 = getelementptr inbounds nuw i8, ptr %22, i64 4
  store i32 1, ptr %22, align 4, !tbaa !4
  store i32 -184549344, ptr %30, align 4
  %31 = getelementptr inbounds nuw i8, ptr %22, i64 8
  store ptr @l_Lean_Compiler_LCNF_Decl_cse___boxed, ptr %31, align 8, !tbaa !9
  %32 = getelementptr inbounds nuw i8, ptr %22, i64 16
  store i16 7, ptr %32, align 8, !tbaa !14
  %33 = getelementptr inbounds nuw i8, ptr %22, i64 18
  store i16 1, ptr %33, align 2, !tbaa !14
  %34 = getelementptr inbounds nuw i8, ptr %22, i64 24
  store ptr %29, ptr %34, align 8, !tbaa !9
  %35 = load ptr, ptr @l_Lean_Compiler_LCNF_cse___closed__2, align 8, !tbaa !9
  %36 = tail call ptr @l_Lean_Compiler_LCNF_Pass_mkPerDeclaration(ptr noundef %35, ptr noundef nonnull %22, i8 noundef zeroext %26, ptr noundef %2) #4
  ret ptr %36
}